; ModuleID = 'source-C-CXX/24/1088.cpp'
source_filename = "source-C-CXX/24/1088.cpp"
target datalayout = "e-m:e-p270:32:32-p271:32:32-p272:64:64-i64:64-f80:128-n8:16:32:64-S128"
target triple = "x86_64-pc-linux-gnu"

%"class.std::ios_base::Init" = type { i8 }
%"class.std::basic_istream" = type { i32 (...)**, i64, %"class.std::basic_ios" }
%"class.std::basic_ios" = type { %"class.std::ios_base", %"class.std::basic_ostream"*, i8, i8, %"class.std::basic_streambuf"*, %"class.std::ctype"*, %"class.std::num_put"*, %"class.std::num_get"* }
%"class.std::ios_base" = type { i32 (...)**, i64, i64, i32, i32, i32, %"struct.std::ios_base::_Callback_list"*, %"struct.std::ios_base::_Words", [8 x %"struct.std::ios_base::_Words"], i32, %"struct.std::ios_base::_Words"*, %"class.std::locale" }
%"struct.std::ios_base::_Callback_list" = type { %"struct.std::ios_base::_Callback_list"*, void (i32, %"class.std::ios_base"*, i32)*, i32, i32 }
%"struct.std::ios_base::_Words" = type { i8*, i64 }
%"class.std::locale" = type { %"class.std::locale::_Impl"* }
%"class.std::locale::_Impl" = type { i32, %"class.std::locale::facet"**, i64, %"class.std::locale::facet"**, i8** }
%"class.std::locale::facet" = type <{ i32 (...)**, i32, [4 x i8] }>
%"class.std::basic_ostream" = type { i32 (...)**, %"class.std::basic_ios" }
%"class.std::basic_streambuf" = type { i32 (...)**, i8*, i8*, i8*, i8*, i8*, i8*, %"class.std::locale" }
%"class.std::ctype" = type <{ %"class.std::locale::facet.base", [4 x i8], %struct.__locale_struct*, i8, [7 x i8], i32*, i32*, i16*, i8, [256 x i8], [256 x i8], i8, [6 x i8] }>
%"class.std::locale::facet.base" = type <{ i32 (...)**, i32 }>
%struct.__locale_struct = type { [13 x %struct.__locale_data*], i16*, i32*, i32*, [13 x i8*] }
%struct.__locale_data = type opaque
%"class.std::num_put" = type { %"class.std::locale::facet.base", [4 x i8] }
%"class.std::num_get" = type { %"class.std::locale::facet.base", [4 x i8] }

@_ZStL8__ioinit = internal global %"class.std::ios_base::Init" zeroinitializer, align 1
@__dso_handle = external hidden global i8
@_ZSt3cin = external global %"class.std::basic_istream", align 8
@_ZSt4cout = external global %"class.std::basic_ostream", align 8
@llvm.global_ctors = appending global [1 x { i32, void ()*, i8* }] [{ i32, void ()*, i8* } { i32 65535, void ()* @_GLOBAL__sub_I_1088.cpp, i8* null }]

declare void @_ZNSt8ios_base4InitC1Ev(%"class.std::ios_base::Init"* nonnull align 1 dereferenceable(1)) unnamed_addr #0

; Function Attrs: nounwind
declare void @_ZNSt8ios_base4InitD1Ev(%"class.std::ios_base::Init"* nonnull align 1 dereferenceable(1)) unnamed_addr #1

; Function Attrs: nofree nounwind
declare i32 @__cxa_atexit(void (i8*)*, i8*, i8*) local_unnamed_addr #2

; Function Attrs: mustprogress norecurse sspstrong uwtable
define dso_local i32 @main() local_unnamed_addr #3 {
  %1 = alloca i32, align 4
  %2 = alloca [40 x i32], align 16
  %3 = bitcast i32* %1 to i8*
  call void @llvm.lifetime.start.p0i8(i64 4, i8* nonnull %3) #7
  %4 = bitcast [40 x i32]* %2 to i8*
  call void @llvm.lifetime.start.p0i8(i64 160, i8* nonnull %4) #7
  call void @llvm.memset.p0i8.i64(i8* noundef nonnull align 16 dereferenceable(160) %4, i8 0, i64 160, i1 false)
  %5 = getelementptr inbounds [40 x i32], [40 x i32]* %2, i64 0, i64 1
  store i32 1, i32* %5, align 4, !tbaa !5
  %6 = call nonnull align 8 dereferenceable(16) %"class.std::basic_istream"* @_ZNSirsERi(%"class.std::basic_istream"* nonnull align 8 dereferenceable(16) @_ZSt3cin, i32* nonnull align 4 dereferenceable(4) %1)
  %7 = load i32, i32* %1, align 4, !tbaa !5
  %8 = icmp slt i32 %7, 1
  br i1 %8, label %45, label %9

9:                                                ; preds = %0, %59
  %10 = phi i32 [ %64, %59 ], [ 1, %0 ]
  %11 = phi i32 [ %65, %59 ], [ 1, %0 ]
  %12 = add nsw i32 %10, 1
  %13 = icmp slt i32 %10, 0
  br i1 %13, label %59, label %14

14:                                               ; preds = %9
  %15 = add nuw i32 %10, 2
  %16 = zext i32 %15 to i64
  %17 = add nsw i64 %16, -1
  %18 = icmp ult i64 %17, 4
  br i1 %18, label %40, label %19

19:                                               ; preds = %14
  %20 = and i64 %17, -4
  %21 = or i64 %20, 1
  br label %22

22:                                               ; preds = %22, %19
  %23 = phi i64 [ 0, %19 ], [ %35, %22 ]
  %24 = phi <4 x i32> [ <i32 poison, i32 poison, i32 poison, i32 0>, %19 ], [ %29, %22 ]
  %25 = or i64 %23, 1
  %26 = getelementptr inbounds [40 x i32], [40 x i32]* %2, i64 0, i64 %25
  %27 = bitcast i32* %26 to <4 x i32>*
  %28 = load <4 x i32>, <4 x i32>* %27, align 4, !tbaa !5
  %29 = sdiv <4 x i32> %28, <i32 5, i32 5, i32 5, i32 5>
  %30 = shufflevector <4 x i32> %24, <4 x i32> %29, <4 x i32> <i32 3, i32 4, i32 5, i32 6>
  %31 = shl nsw <4 x i32> %28, <i32 1, i32 1, i32 1, i32 1>
  %32 = add nsw <4 x i32> %30, %31
  %33 = srem <4 x i32> %32, <i32 10, i32 10, i32 10, i32 10>
  %34 = bitcast i32* %26 to <4 x i32>*
  store <4 x i32> %33, <4 x i32>* %34, align 4, !tbaa !5
  %35 = add nuw i64 %23, 4
  %36 = icmp eq i64 %35, %20
  br i1 %36, label %37, label %22, !llvm.loop !9

37:                                               ; preds = %22
  %38 = icmp eq i64 %17, %20
  %39 = extractelement <4 x i32> %29, i32 3
  br i1 %38, label %59, label %40

40:                                               ; preds = %14, %37
  %41 = phi i32 [ %39, %37 ], [ 0, %14 ]
  %42 = phi i64 [ %21, %37 ], [ 1, %14 ]
  br label %48

43:                                               ; preds = %59
  %44 = icmp sgt i32 %64, 0
  br i1 %44, label %45, label %74

45:                                               ; preds = %0, %43
  %46 = phi i32 [ %64, %43 ], [ 1, %0 ]
  %47 = zext i32 %46 to i64
  br label %67

48:                                               ; preds = %40, %48
  %49 = phi i32 [ %53, %48 ], [ %41, %40 ]
  %50 = phi i64 [ %54, %48 ], [ %42, %40 ]
  %51 = getelementptr inbounds [40 x i32], [40 x i32]* %2, i64 0, i64 %50
  %52 = load i32, i32* %51, align 4, !tbaa !5
  %53 = sdiv i32 %52, 5
  %54 = add nuw nsw i64 %50, 1
  %55 = shl nsw i32 %52, 1
  %56 = add nsw i32 %49, %55
  %57 = srem i32 %56, 10
  store i32 %57, i32* %51, align 4, !tbaa !5
  %58 = icmp eq i64 %54, %16
  br i1 %58, label %59, label %48, !llvm.loop !12

59:                                               ; preds = %48, %37, %9
  %60 = sext i32 %12 to i64
  %61 = getelementptr inbounds [40 x i32], [40 x i32]* %2, i64 0, i64 %60
  %62 = load i32, i32* %61, align 4, !tbaa !5
  %63 = icmp sgt i32 %62, 0
  %64 = select i1 %63, i32 %12, i32 %10
  %65 = add nuw i32 %11, 1
  %66 = icmp eq i32 %11, %7
  br i1 %66, label %43, label %9, !llvm.loop !14

67:                                               ; preds = %45, %67
  %68 = phi i64 [ %47, %45 ], [ %73, %67 ]
  %69 = getelementptr inbounds [40 x i32], [40 x i32]* %2, i64 0, i64 %68
  %70 = load i32, i32* %69, align 4, !tbaa !5
  %71 = call nonnull align 8 dereferenceable(8) %"class.std::basic_ostream"* @_ZNSolsEi(%"class.std::basic_ostream"* nonnull align 8 dereferenceable(8) @_ZSt4cout, i32 %70)
  %72 = icmp sgt i64 %68, 1
  %73 = add nsw i64 %68, -1
  br i1 %72, label %67, label %74, !llvm.loop !15

74:                                               ; preds = %67, %43
  call void @llvm.lifetime.end.p0i8(i64 160, i8* nonnull %4) #7
  call void @llvm.lifetime.end.p0i8(i64 4, i8* nonnull %3) #7
  ret i32 0
}

; Function Attrs: argmemonly mustprogress nofree nosync nounwind willreturn
declare void @llvm.lifetime.start.p0i8(i64 immarg, i8* nocapture) #4

; Function Attrs: argmemonly mustprogress nofree nounwind willreturn writeonly
declare void @llvm.memset.p0i8.i64(i8* nocapture writeonly, i8, i64, i1 immarg) #5

declare nonnull align 8 dereferenceable(16) %"class.std::basic_istream"* @_ZNSirsERi(%"class.std::basic_istream"* nonnull align 8 dereferenceable(16), i32* nonnull align 4 dereferenceable(4)) local_unnamed_addr #0

declare nonnull align 8 dereferenceable(8) %"class.std::basic_ostream"* @_ZNSolsEi(%"class.std::basic_ostream"* nonnull align 8 dereferenceable(8), i32) local_unnamed_addr #0

; Function Attrs: argmemonly mustprogress nofree nosync nounwind willreturn
declare void @llvm.lifetime.end.p0i8(i64 immarg, i8* nocapture) #4

; Function Attrs: sspstrong uwtable
define internal void @_GLOBAL__sub_I_1088.cpp() #6 section ".text.startup" {
  tail call void @_ZNSt8ios_base4InitC1Ev(%"class.std::ios_base::Init"* nonnull align 1 dereferenceable(1) @_ZStL8__ioinit)
  %1 = tail call i32 @__cxa_atexit(void (i8*)* bitcast (void (%"class.std::ios_base::Init"*)* @_ZNSt8ios_base4InitD1Ev to void (i8*)*), i8* getelementptr inbounds (%"class.std::ios_base::Init", %"class.std::ios_base::Init"* @_ZStL8__ioinit, i64 0, i32 0), i8* nonnull @__dso_handle) #7
  ret void
}


!llvm.module.flags = !{!0, !1, !2, !3}
!llvm.ident = !{!4}

!0 = !{i32 1, !"wchar_size", i32 4}
!1 = !{i32 7, !"PIC Level", i32 2}
!2 = !{i32 7, !"PIE Level", i32 2}
!3 = !{i32 7, !"uwtable", i32 1}
!4 = !{!"clang version 13.0.0"}
!5 = !{!6, !6, i64 0}
!6 = !{!"int", !7, i64 0}
!7 = !{!"omnipotent char", !8, i64 0}
!8 = !{!"Simple C++ TBAA"}
!9 = distinct !{!9, !10, !11}
!10 = !{!"llvm.loop.mustprogress"}
!11 = !{!"llvm.loop.isvectorized", i32 1}
!12 = distinct !{!12, !10, !13, !11}
!13 = !{!"llvm.loop.unroll.runtime.disable"}
!14 = distinct !{!14, !10}
!15 = distinct !{!15, !10}
